target datalayout = "e-m:e-p270:32:32-p271:32:32-p272:64:64-i64:64-i128:128-f80:128-n8:16:32:64-S128"
target triple = "x86_64-pc-linux-gnu"

%"struct.Luau::CodeGen::IrOp" = type { i32 }
%"struct.Luau::CodeGen::FallbackStreamScope" = type <{ ptr, %"struct.Luau::CodeGen::IrOp", [4 x i8] }>

; Function Attrs: mustprogress uwtable
define linkonce_odr dso_local void @_ZN4Luau7CodeGen19FallbackStreamScopeC2ERNS0_9IrBuilderENS0_4IrOpES4_(ptr noundef nonnull align 8 dereferenceable(12) %0, ptr noundef nonnull align 8 dereferenceable(752) %1, i32 %2, i32 %3) unnamed_addr #0 comdat align 2 {
  %5 = alloca %"struct.Luau::CodeGen::IrOp", align 4
  %6 = alloca %"struct.Luau::CodeGen::IrOp", align 4
  %7 = alloca ptr, align 8
  %8 = alloca ptr, align 8
  %9 = alloca %"struct.Luau::CodeGen::IrOp", align 4
  %10 = alloca %"struct.Luau::CodeGen::IrOp", align 4
  %11 = alloca %"struct.Luau::CodeGen::IrOp", align 4
  %12 = getelementptr inbounds nuw %"struct.Luau::CodeGen::IrOp", ptr %5, i32 0, i32 0
  store i32 %2, ptr %12, align 4
  %13 = getelementptr inbounds nuw %"struct.Luau::CodeGen::IrOp", ptr %6, i32 0, i32 0
  store i32 %3, ptr %13, align 4
  store ptr %0, ptr %7, align 8, !tbaa !130
  store ptr %1, ptr %8, align 8, !tbaa !4
  %14 = load ptr, ptr %7, align 8
  %15 = getelementptr inbounds nuw %"struct.Luau::CodeGen::FallbackStreamScope", ptr %14, i32 0, i32 0
  %16 = load ptr, ptr %8, align 8, !tbaa !4
  store ptr %16, ptr %15, align 8, !tbaa !4
  %17 = getelementptr inbounds nuw %"struct.Luau::CodeGen::FallbackStreamScope", ptr %14, i32 0, i32 1
  call void @llvm.memcpy.p0.p0.i64(ptr align 8 %17, ptr align 4 %6, i64 4, i1 false), !tbaa.struct !112
  %18 = load ptr, ptr %8, align 8, !tbaa !4
  call void @llvm.memcpy.p0.p0.i64(ptr align 4 %9, ptr align 4 %6, i64 4, i1 false), !tbaa.struct !112
  %19 = getelementptr inbounds nuw %"struct.Luau::CodeGen::IrOp", ptr %9, i32 0, i32 0
  %20 = load i32, ptr %19, align 4
  %21 = call i32 @_ZN4Luau7CodeGen9IrBuilder4instENS0_5IrCmdENS0_4IrOpE(ptr noundef nonnull align 8 dereferenceable(752) %18, i8 noundef zeroext 46, i32 %20)
  %22 = getelementptr inbounds nuw %"struct.Luau::CodeGen::IrOp", ptr %10, i32 0, i32 0
  store i32 %21, ptr %22, align 4
  %23 = load ptr, ptr %8, align 8, !tbaa !4
  call void @llvm.memcpy.p0.p0.i64(ptr align 4 %11, ptr align 4 %5, i64 4, i1 false), !tbaa.struct !112
  %24 = getelementptr inbounds nuw %"struct.Luau::CodeGen::IrOp", ptr %11, i32 0, i32 0
  %25 = load i32, ptr %24, align 4
  call void @_ZN4Luau7CodeGen9IrBuilder10beginBlockENS0_4IrOpE(ptr noundef nonnull align 8 dereferenceable(752) %23, i32 %25)
  ret void
}

; Function Attrs: mustprogress uwtable
define dso_local void @_ZN4Luau7CodeGen22translateInstGetImportERNS0_9IrBuilderEPKji(ptr noundef nonnull align 8 dereferenceable(752) %0, ptr noundef %1, i32 noundef %2) #0 personality ptr @__gxx_personality_v0 {
  %4 = alloca ptr, align 8
  %5 = alloca ptr, align 8
  %6 = alloca i32, align 4
  %7 = alloca i32, align 4
  %8 = alloca i32, align 4
  %9 = alloca i32, align 4
  %10 = alloca %"struct.Luau::CodeGen::IrOp", align 4
  %11 = alloca %"struct.Luau::CodeGen::IrOp", align 4
  %12 = alloca %"struct.Luau::CodeGen::IrOp", align 4
  %13 = alloca %"struct.Luau::CodeGen::IrOp", align 4
  %14 = alloca %"struct.Luau::CodeGen::IrOp", align 4
  %15 = alloca %"struct.Luau::CodeGen::IrOp", align 4
  %16 = alloca %"struct.Luau::CodeGen::IrOp", align 4
  %17 = alloca %"struct.Luau::CodeGen::IrOp", align 4
  %18 = alloca %"struct.Luau::CodeGen::IrOp", align 4
  %19 = alloca %"struct.Luau::CodeGen::IrOp", align 4
  %20 = alloca %"struct.Luau::CodeGen::IrOp", align 4
  %21 = alloca %"struct.Luau::CodeGen::IrOp", align 4
  %22 = alloca %"struct.Luau::CodeGen::IrOp", align 4
  %23 = alloca %"struct.Luau::CodeGen::IrOp", align 4
  %24 = alloca %"struct.Luau::CodeGen::IrOp", align 4
  %25 = alloca %"struct.Luau::CodeGen::IrOp", align 4
  %26 = alloca %"struct.Luau::CodeGen::IrOp", align 4
  %27 = alloca %"struct.Luau::CodeGen::IrOp", align 4
  %28 = alloca %"struct.Luau::CodeGen::FallbackStreamScope", align 8
  %29 = alloca %"struct.Luau::CodeGen::IrOp", align 4
  %30 = alloca %"struct.Luau::CodeGen::IrOp", align 4
  %31 = alloca %"struct.Luau::CodeGen::IrOp", align 4
  %32 = alloca ptr, align 8
  %33 = alloca i32, align 4
  %34 = alloca %"struct.Luau::CodeGen::IrOp", align 4
  %35 = alloca %"struct.Luau::CodeGen::IrOp", align 4
  %36 = alloca %"struct.Luau::CodeGen::IrOp", align 4
  %37 = alloca %"struct.Luau::CodeGen::IrOp", align 4
  %38 = alloca %"struct.Luau::CodeGen::IrOp", align 4
  %39 = alloca %"struct.Luau::CodeGen::IrOp", align 4
  store ptr %0, ptr %4, align 8, !tbaa !4
  store ptr %1, ptr %5, align 8, !tbaa !9
  store i32 %2, ptr %6, align 4, !tbaa !11
  call void @llvm.lifetime.start.p0(i64 4, ptr %7) #13
  %40 = load ptr, ptr %5, align 8, !tbaa !9
  %41 = load i32, ptr %40, align 4, !tbaa !11
  %42 = lshr i32 %41, 8
  %43 = and i32 %42, 255
  store i32 %43, ptr %7, align 4, !tbaa !11
  call void @llvm.lifetime.start.p0(i64 4, ptr %8) #13
  %44 = load ptr, ptr %5, align 8, !tbaa !9
  %45 = load i32, ptr %44, align 4, !tbaa !11
  %46 = ashr i32 %45, 16
  store i32 %46, ptr %8, align 4, !tbaa !11
  call void @llvm.lifetime.start.p0(i64 4, ptr %9) #13
  %47 = load ptr, ptr %5, align 8, !tbaa !9
  %48 = getelementptr inbounds i32, ptr %47, i64 1
  %49 = load i32, ptr %48, align 4, !tbaa !11
  store i32 %49, ptr %9, align 4, !tbaa !11
  call void @llvm.lifetime.start.p0(i64 4, ptr %10) #13
  %50 = load ptr, ptr %4, align 8, !tbaa !4
  %51 = call i32 @_ZN4Luau7CodeGen9IrBuilder5blockENS0_11IrBlockKindE(ptr noundef nonnull align 8 dereferenceable(752) %50, i8 noundef zeroext 2)
  %52 = getelementptr inbounds nuw %"struct.Luau::CodeGen::IrOp", ptr %10, i32 0, i32 0
  store i32 %51, ptr %52, align 4
  call void @llvm.lifetime.start.p0(i64 4, ptr %11) #13
  %53 = load ptr, ptr %4, align 8, !tbaa !4
  %54 = call i32 @_ZN4Luau7CodeGen9IrBuilder5blockENS0_11IrBlockKindE(ptr noundef nonnull align 8 dereferenceable(752) %53, i8 noundef zeroext 1)
  %55 = getelementptr inbounds nuw %"struct.Luau::CodeGen::IrOp", ptr %11, i32 0, i32 0
  store i32 %54, ptr %55, align 4
  %56 = load ptr, ptr %4, align 8, !tbaa !4
  %57 = load ptr, ptr %4, align 8, !tbaa !4
  %58 = load i32, ptr %6, align 4, !tbaa !11
  %59 = call i32 @_ZN4Luau7CodeGen9IrBuilder6vmExitEj(ptr noundef nonnull align 8 dereferenceable(752) %57, i32 noundef %58)
  %60 = getelementptr inbounds nuw %"struct.Luau::CodeGen::IrOp", ptr %12, i32 0, i32 0
  store i32 %59, ptr %60, align 4
  %61 = getelementptr inbounds nuw %"struct.Luau::CodeGen::IrOp", ptr %12, i32 0, i32 0
  %62 = load i32, ptr %61, align 4
  %63 = call i32 @_ZN4Luau7CodeGen9IrBuilder4instENS0_5IrCmdENS0_4IrOpE(ptr noundef nonnull align 8 dereferenceable(752) %56, i8 noundef zeroext 86, i32 %62)
  %64 = getelementptr inbounds nuw %"struct.Luau::CodeGen::IrOp", ptr %13, i32 0, i32 0
  store i32 %63, ptr %64, align 4
  call void @llvm.lifetime.start.p0(i64 4, ptr %14) #13
  %65 = load ptr, ptr %4, align 8, !tbaa !4
  %66 = load ptr, ptr %4, align 8, !tbaa !4
  %67 = load i32, ptr %8, align 4, !tbaa !11
  %68 = call i32 @_ZN4Luau7CodeGen9IrBuilder7vmConstEj(ptr noundef nonnull align 8 dereferenceable(752) %66, i32 noundef %67)
  %69 = getelementptr inbounds nuw %"struct.Luau::CodeGen::IrOp", ptr %15, i32 0, i32 0
  store i32 %68, ptr %69, align 4
  %70 = getelementptr inbounds nuw %"struct.Luau::CodeGen::IrOp", ptr %15, i32 0, i32 0
  %71 = load i32, ptr %70, align 4
  %72 = call i32 @_ZN4Luau7CodeGen9IrBuilder4instENS0_5IrCmdENS0_4IrOpE(ptr noundef nonnull align 8 dereferenceable(752) %65, i8 noundef zeroext 1, i32 %71)
  %73 = getelementptr inbounds nuw %"struct.Luau::CodeGen::IrOp", ptr %14, i32 0, i32 0
  store i32 %72, ptr %73, align 4
  %74 = load ptr, ptr %4, align 8, !tbaa !4
  call void @llvm.memcpy.p0.p0.i64(ptr align 4 %16, ptr align 4 %14, i64 4, i1 false), !tbaa.struct !112
  %75 = load ptr, ptr %4, align 8, !tbaa !4
  %76 = call i32 @_ZN4Luau7CodeGen9IrBuilder8constTagEh(ptr noundef nonnull align 8 dereferenceable(752) %75, i8 noundef zeroext 0)
  %77 = getelementptr inbounds nuw %"struct.Luau::CodeGen::IrOp", ptr %17, i32 0, i32 0
  store i32 %76, ptr %77, align 4
  call void @llvm.memcpy.p0.p0.i64(ptr align 4 %18, ptr align 4 %11, i64 4, i1 false), !tbaa.struct !112
  call void @llvm.memcpy.p0.p0.i64(ptr align 4 %19, ptr align 4 %10, i64 4, i1 false), !tbaa.struct !112
  %78 = getelementptr inbounds nuw %"struct.Luau::CodeGen::IrOp", ptr %16, i32 0, i32 0
  %79 = load i32, ptr %78, align 4
  %80 = getelementptr inbounds nuw %"struct.Luau::CodeGen::IrOp", ptr %17, i32 0, i32 0
  %81 = load i32, ptr %80, align 4
  %82 = getelementptr inbounds nuw %"struct.Luau::CodeGen::IrOp", ptr %18, i32 0, i32 0
  %83 = load i32, ptr %82, align 4
  %84 = getelementptr inbounds nuw %"struct.Luau::CodeGen::IrOp", ptr %19, i32 0, i32 0
  %85 = load i32, ptr %84, align 4
  %86 = call i32 @_ZN4Luau7CodeGen9IrBuilder4instENS0_5IrCmdENS0_4IrOpES3_S3_S3_(ptr noundef nonnull align 8 dereferenceable(752) %74, i8 noundef zeroext 49, i32 %79, i32 %81, i32 %83, i32 %85)
  %87 = getelementptr inbounds nuw %"struct.Luau::CodeGen::IrOp", ptr %20, i32 0, i32 0
  store i32 %86, ptr %87, align 4
  %88 = load ptr, ptr %4, align 8, !tbaa !4
  call void @llvm.memcpy.p0.p0.i64(ptr align 4 %21, ptr align 4 %10, i64 4, i1 false), !tbaa.struct !112
  %89 = getelementptr inbounds nuw %"struct.Luau::CodeGen::IrOp", ptr %21, i32 0, i32 0
  %90 = load i32, ptr %89, align 4
  call void @_ZN4Luau7CodeGen9IrBuilder10beginBlockENS0_4IrOpE(ptr noundef nonnull align 8 dereferenceable(752) %88, i32 %90)
  call void @llvm.lifetime.start.p0(i64 4, ptr %22) #13
  %91 = load ptr, ptr %4, align 8, !tbaa !4
  %92 = load ptr, ptr %4, align 8, !tbaa !4
  %93 = load i32, ptr %8, align 4, !tbaa !11
  %94 = call i32 @_ZN4Luau7CodeGen9IrBuilder7vmConstEj(ptr noundef nonnull align 8 dereferenceable(752) %92, i32 noundef %93)
  %95 = getelementptr inbounds nuw %"struct.Luau::CodeGen::IrOp", ptr %23, i32 0, i32 0
  store i32 %94, ptr %95, align 4
  %96 = getelementptr inbounds nuw %"struct.Luau::CodeGen::IrOp", ptr %23, i32 0, i32 0
  %97 = load i32, ptr %96, align 4
  %98 = call i32 @_ZN4Luau7CodeGen9IrBuilder4instENS0_5IrCmdENS0_4IrOpE(ptr noundef nonnull align 8 dereferenceable(752) %91, i8 noundef zeroext 6, i32 %97)
  %99 = getelementptr inbounds nuw %"struct.Luau::CodeGen::IrOp", ptr %22, i32 0, i32 0
  store i32 %98, ptr %99, align 4
  %100 = load ptr, ptr %4, align 8, !tbaa !4
  %101 = load ptr, ptr %4, align 8, !tbaa !4
  %102 = load i32, ptr %7, align 4, !tbaa !11
  %103 = trunc i32 %102 to i8
  %104 = call i32 @_ZN4Luau7CodeGen9IrBuilder5vmRegEh(ptr noundef nonnull align 8 dereferenceable(752) %101, i8 noundef zeroext %103)
  %105 = getelementptr inbounds nuw %"struct.Luau::CodeGen::IrOp", ptr %24, i32 0, i32 0
  store i32 %104, ptr %105, align 4
  call void @llvm.memcpy.p0.p0.i64(ptr align 4 %25, ptr align 4 %22, i64 4, i1 false), !tbaa.struct !112
  %106 = getelementptr inbounds nuw %"struct.Luau::CodeGen::IrOp", ptr %24, i32 0, i32 0
  %107 = load i32, ptr %106, align 4
  %108 = getelementptr inbounds nuw %"struct.Luau::CodeGen::IrOp", ptr %25, i32 0, i32 0
  %109 = load i32, ptr %108, align 4
  %110 = call i32 @_ZN4Luau7CodeGen9IrBuilder4instENS0_5IrCmdENS0_4IrOpES3_(ptr noundef nonnull align 8 dereferenceable(752) %100, i8 noundef zeroext 18, i32 %107, i32 %109)
  %111 = getelementptr inbounds nuw %"struct.Luau::CodeGen::IrOp", ptr %26, i32 0, i32 0
  store i32 %110, ptr %111, align 4
  call void @llvm.lifetime.start.p0(i64 4, ptr %27) #13
  %112 = load ptr, ptr %4, align 8, !tbaa !4
  %113 = load i32, ptr %6, align 4, !tbaa !11
  %114 = add nsw i32 %113, 2
  %115 = call i32 @_ZN4Luau7CodeGen9IrBuilder11blockAtInstEj(ptr noundef nonnull align 8 dereferenceable(752) %112, i32 noundef %114)
  %116 = getelementptr inbounds nuw %"struct.Luau::CodeGen::IrOp", ptr %27, i32 0, i32 0
  store i32 %115, ptr %116, align 4
  call void @llvm.lifetime.start.p0(i64 16, ptr %28) #13
  %117 = load ptr, ptr %4, align 8, !tbaa !4
  call void @llvm.memcpy.p0.p0.i64(ptr align 4 %29, ptr align 4 %11, i64 4, i1 false), !tbaa.struct !112
  call void @llvm.memcpy.p0.p0.i64(ptr align 4 %30, ptr align 4 %27, i64 4, i1 false), !tbaa.struct !112
  %118 = getelementptr inbounds nuw %"struct.Luau::CodeGen::IrOp", ptr %29, i32 0, i32 0
  %119 = load i32, ptr %118, align 4
  %120 = getelementptr inbounds nuw %"struct.Luau::CodeGen::IrOp", ptr %30, i32 0, i32 0
  %121 = load i32, ptr %120, align 4
  call void @_ZN4Luau7CodeGen19FallbackStreamScopeC2ERNS0_9IrBuilderENS0_4IrOpES4_(ptr noundef nonnull align 8 dereferenceable(12) %28, ptr noundef nonnull align 8 dereferenceable(752) %117, i32 %119, i32 %121)
  %122 = load ptr, ptr %4, align 8, !tbaa !4
  %123 = load ptr, ptr %4, align 8, !tbaa !4
  %124 = load i32, ptr %6, align 4, !tbaa !11
  %125 = add nsw i32 %124, 1
  %126 = invoke i32 @_ZN4Luau7CodeGen9IrBuilder9constUintEj(ptr noundef nonnull align 8 dereferenceable(752) %123, i32 noundef %125)
          to label %127 unwind label %159

127:                                              ; preds = %3
  %128 = getelementptr inbounds nuw %"struct.Luau::CodeGen::IrOp", ptr %31, i32 0, i32 0
  store i32 %126, ptr %128, align 4
  %129 = getelementptr inbounds nuw %"struct.Luau::CodeGen::IrOp", ptr %31, i32 0, i32 0
  %130 = load i32, ptr %129, align 4
  %131 = invoke i32 @_ZN4Luau7CodeGen9IrBuilder4instENS0_5IrCmdENS0_4IrOpE(ptr noundef nonnull align 8 dereferenceable(752) %122, i8 noundef zeroext 98, i32 %130)
          to label %132 unwind label %159

132:                                              ; preds = %127
  %133 = getelementptr inbounds nuw %"struct.Luau::CodeGen::IrOp", ptr %34, i32 0, i32 0
  store i32 %131, ptr %133, align 4
  %134 = load ptr, ptr %4, align 8, !tbaa !4
  %135 = load ptr, ptr %4, align 8, !tbaa !4
  %136 = load i32, ptr %7, align 4, !tbaa !11
  %137 = trunc i32 %136 to i8
  %138 = invoke i32 @_ZN4Luau7CodeGen9IrBuilder5vmRegEh(ptr noundef nonnull align 8 dereferenceable(752) %135, i8 noundef zeroext %137)
          to label %139 unwind label %159

139:                                              ; preds = %132
  %140 = getelementptr inbounds nuw %"struct.Luau::CodeGen::IrOp", ptr %35, i32 0, i32 0
  store i32 %138, ptr %140, align 4
  %141 = load ptr, ptr %4, align 8, !tbaa !4
  %142 = load i32, ptr %9, align 4, !tbaa !11
  %143 = invoke i32 @_ZN4Luau7CodeGen9IrBuilder9constUintEj(ptr noundef nonnull align 8 dereferenceable(752) %141, i32 noundef %142)
          to label %144 unwind label %159

144:                                              ; preds = %139
  %145 = getelementptr inbounds nuw %"struct.Luau::CodeGen::IrOp", ptr %36, i32 0, i32 0
  store i32 %143, ptr %145, align 4
  %146 = getelementptr inbounds nuw %"struct.Luau::CodeGen::IrOp", ptr %35, i32 0, i32 0
  %147 = load i32, ptr %146, align 4
  %148 = getelementptr inbounds nuw %"struct.Luau::CodeGen::IrOp", ptr %36, i32 0, i32 0
  %149 = load i32, ptr %148, align 4
  %150 = invoke i32 @_ZN4Luau7CodeGen9IrBuilder4instENS0_5IrCmdENS0_4IrOpES3_(ptr noundef nonnull align 8 dereferenceable(752) %134, i8 noundef zeroext 78, i32 %147, i32 %149)
          to label %151 unwind label %159

151:                                              ; preds = %144
  %152 = getelementptr inbounds nuw %"struct.Luau::CodeGen::IrOp", ptr %37, i32 0, i32 0
  store i32 %150, ptr %152, align 4
  %153 = load ptr, ptr %4, align 8, !tbaa !4
  call void @llvm.memcpy.p0.p0.i64(ptr align 4 %38, ptr align 4 %27, i64 4, i1 false), !tbaa.struct !112
  %154 = getelementptr inbounds nuw %"struct.Luau::CodeGen::IrOp", ptr %38, i32 0, i32 0
  %155 = load i32, ptr %154, align 4
  %156 = invoke i32 @_ZN4Luau7CodeGen9IrBuilder4instENS0_5IrCmdENS0_4IrOpE(ptr noundef nonnull align 8 dereferenceable(752) %153, i8 noundef zeroext 46, i32 %155)
          to label %157 unwind label %159

157:                                              ; preds = %151
  %158 = getelementptr inbounds nuw %"struct.Luau::CodeGen::IrOp", ptr %39, i32 0, i32 0
  store i32 %156, ptr %158, align 4
  call void @_ZN4Luau7CodeGen19FallbackStreamScopeD2Ev(ptr noundef nonnull align 8 dereferenceable(12) %28) #13
  call void @llvm.lifetime.end.p0(i64 16, ptr %28) #13
  call void @llvm.lifetime.end.p0(i64 4, ptr %27) #13
  call void @llvm.lifetime.end.p0(i64 4, ptr %22) #13
  call void @llvm.lifetime.end.p0(i64 4, ptr %14) #13
  call void @llvm.lifetime.end.p0(i64 4, ptr %11) #13
  call void @llvm.lifetime.end.p0(i64 4, ptr %10) #13
  call void @llvm.lifetime.end.p0(i64 4, ptr %9) #13
  call void @llvm.lifetime.end.p0(i64 4, ptr %8) #13
  call void @llvm.lifetime.end.p0(i64 4, ptr %7) #13
  ret void

159:                                              ; preds = %151, %144, %139, %132, %127, %3
  %160 = landingpad { ptr, i32 }
          cleanup
  %161 = extractvalue { ptr, i32 } %160, 0
  store ptr %161, ptr %32, align 8
  %162 = extractvalue { ptr, i32 } %160, 1
  store i32 %162, ptr %33, align 4
  call void @_ZN4Luau7CodeGen19FallbackStreamScopeD2Ev(ptr noundef nonnull align 8 dereferenceable(12) %28) #13
  call void @llvm.lifetime.end.p0(i64 16, ptr %28) #13
  call void @llvm.lifetime.end.p0(i64 4, ptr %27) #13
  call void @llvm.lifetime.end.p0(i64 4, ptr %22) #13
  call void @llvm.lifetime.end.p0(i64 4, ptr %14) #13
  call void @llvm.lifetime.end.p0(i64 4, ptr %11) #13
  call void @llvm.lifetime.end.p0(i64 4, ptr %10) #13
  call void @llvm.lifetime.end.p0(i64 4, ptr %9) #13
  call void @llvm.lifetime.end.p0(i64 4, ptr %8) #13
  call void @llvm.lifetime.end.p0(i64 4, ptr %7) #13
  br label %163

163:                                              ; preds = %159
  %164 = load ptr, ptr %32, align 8
  %165 = load i32, ptr %33, align 4
  %166 = insertvalue { ptr, i32 } poison, ptr %164, 0
  %167 = insertvalue { ptr, i32 } %166, i32 %165, 1
  resume { ptr, i32 } %167
}