; Function Attrs: mustprogress uwtable
define dso_local void @_ZN4Luau7CodeGen22translateInstGetImportERNS0_9IrBuilderEPKji(ptr noundef nonnull align 8 dereferenceable(752) %0, ptr noundef readonly captures(none) %1, i32 noundef %2) local_unnamed_addr #0 personality ptr @__gxx_personality_v0 {
  %4 = alloca %"struct.Luau::CodeGen::FallbackStreamScope", align 8
  %5 = load i32, ptr %1, align 4, !tbaa !4
  %6 = lshr i32 %5, 8
  %7 = ashr i32 %5, 16
  %8 = getelementptr inbounds nuw i8, ptr %1, i64 4
  %9 = load i32, ptr %8, align 4, !tbaa !4
  %10 = tail call i32 @_ZN4Luau7CodeGen9IrBuilder5blockENS0_11IrBlockKindE(ptr noundef nonnull align 8 dereferenceable(752) %0, i8 noundef zeroext 2)
  %11 = tail call i32 @_ZN4Luau7CodeGen9IrBuilder5blockENS0_11IrBlockKindE(ptr noundef nonnull align 8 dereferenceable(752) %0, i8 noundef zeroext 1)
  %12 = tail call i32 @_ZN4Luau7CodeGen9IrBuilder6vmExitEj(ptr noundef nonnull align 8 dereferenceable(752) %0, i32 noundef %2)
  %13 = tail call i32 @_ZN4Luau7CodeGen9IrBuilder4instENS0_5IrCmdENS0_4IrOpE(ptr noundef nonnull align 8 dereferenceable(752) %0, i8 noundef zeroext 86, i32 %12)
  %14 = tail call i32 @_ZN4Luau7CodeGen9IrBuilder7vmConstEj(ptr noundef nonnull align 8 dereferenceable(752) %0, i32 noundef %7)
  %15 = tail call i32 @_ZN4Luau7CodeGen9IrBuilder4instENS0_5IrCmdENS0_4IrOpE(ptr noundef nonnull align 8 dereferenceable(752) %0, i8 noundef zeroext 1, i32 %14)
  %16 = tail call i32 @_ZN4Luau7CodeGen9IrBuilder8constTagEh(ptr noundef nonnull align 8 dereferenceable(752) %0, i8 noundef zeroext 0)
  %17 = tail call i32 @_ZN4Luau7CodeGen9IrBuilder4instENS0_5IrCmdENS0_4IrOpES3_S3_S3_(ptr noundef nonnull align 8 dereferenceable(752) %0, i8 noundef zeroext 49, i32 %15, i32 %16, i32 %11, i32 %10)
  tail call void @_ZN4Luau7CodeGen9IrBuilder10beginBlockENS0_4IrOpE(ptr noundef nonnull align 8 dereferenceable(752) %0, i32 %10)
  %18 = tail call i32 @_ZN4Luau7CodeGen9IrBuilder7vmConstEj(ptr noundef nonnull align 8 dereferenceable(752) %0, i32 noundef %7)
  %19 = tail call i32 @_ZN4Luau7CodeGen9IrBuilder4instENS0_5IrCmdENS0_4IrOpE(ptr noundef nonnull align 8 dereferenceable(752) %0, i8 noundef zeroext 6, i32 %18)
  %20 = trunc i32 %6 to i8
  %21 = tail call i32 @_ZN4Luau7CodeGen9IrBuilder5vmRegEh(ptr noundef nonnull align 8 dereferenceable(752) %0, i8 noundef zeroext %20)
  %22 = tail call i32 @_ZN4Luau7CodeGen9IrBuilder4instENS0_5IrCmdENS0_4IrOpES3_(ptr noundef nonnull align 8 dereferenceable(752) %0, i8 noundef zeroext 18, i32 %21, i32 %19)
  %23 = add nsw i32 %2, 2
  %24 = tail call i32 @_ZN4Luau7CodeGen9IrBuilder11blockAtInstEj(ptr noundef nonnull align 8 dereferenceable(752) %0, i32 noundef %23)
  call void @llvm.lifetime.start.p0(i64 16, ptr nonnull %4) #14
  store ptr %0, ptr %4, align 8, !tbaa !111
  %25 = getelementptr inbounds nuw i8, ptr %4, i64 8
  store i32 %24, ptr %25, align 8, !tbaa !105
  %26 = tail call i32 @_ZN4Luau7CodeGen9IrBuilder4instENS0_5IrCmdENS0_4IrOpE(ptr noundef nonnull align 8 dereferenceable(752) %0, i8 noundef zeroext 46, i32 %24)
  tail call void @_ZN4Luau7CodeGen9IrBuilder10beginBlockENS0_4IrOpE(ptr noundef nonnull align 8 dereferenceable(752) %0, i32 %11)
  %27 = add nsw i32 %2, 1
  %28 = invoke i32 @_ZN4Luau7CodeGen9IrBuilder9constUintEj(ptr noundef nonnull align 8 dereferenceable(752) %0, i32 noundef %27)
          to label %29 unwind label %43

29:                                               ; preds = %3
  %30 = invoke i32 @_ZN4Luau7CodeGen9IrBuilder4instENS0_5IrCmdENS0_4IrOpE(ptr noundef nonnull align 8 dereferenceable(752) %0, i8 noundef zeroext 98, i32 %28)
          to label %31 unwind label %43

31:                                               ; preds = %29
  %32 = invoke i32 @_ZN4Luau7CodeGen9IrBuilder5vmRegEh(ptr noundef nonnull align 8 dereferenceable(752) %0, i8 noundef zeroext %20)
          to label %33 unwind label %43

33:                                               ; preds = %31
  %34 = invoke i32 @_ZN4Luau7CodeGen9IrBuilder9constUintEj(ptr noundef nonnull align 8 dereferenceable(752) %0, i32 noundef %9)
          to label %35 unwind label %43

35:                                               ; preds = %33
  %36 = invoke i32 @_ZN4Luau7CodeGen9IrBuilder4instENS0_5IrCmdENS0_4IrOpES3_(ptr noundef nonnull align 8 dereferenceable(752) %0, i8 noundef zeroext 78, i32 %32, i32 %34)
          to label %37 unwind label %43

37:                                               ; preds = %35
  %38 = invoke i32 @_ZN4Luau7CodeGen9IrBuilder4instENS0_5IrCmdENS0_4IrOpE(ptr noundef nonnull align 8 dereferenceable(752) %0, i8 noundef zeroext 46, i32 %24)
          to label %39 unwind label %43

39:                                               ; preds = %37
  invoke void @_ZN4Luau7CodeGen9IrBuilder10beginBlockENS0_4IrOpE(ptr noundef nonnull align 8 dereferenceable(752) %0, i32 %24)
          to label %_ZN4Luau7CodeGen19FallbackStreamScopeD2Ev.exit unwind label %40

40:                                               ; preds = %39
  %41 = landingpad { ptr, i32 }
          catch ptr null
  %42 = extractvalue { ptr, i32 } %41, 0
  tail call void @__clang_call_terminate(ptr %42) #15
  unreachable

_ZN4Luau7CodeGen19FallbackStreamScopeD2Ev.exit:   ; preds = %39
  call void @llvm.lifetime.end.p0(i64 16, ptr nonnull %4) #14
  ret void

43:                                               ; preds = %37, %35, %33, %31, %29, %3
  %44 = landingpad { ptr, i32 }
          cleanup
  call void @_ZN4Luau7CodeGen19FallbackStreamScopeD2Ev(ptr noundef nonnull align 8 dereferenceable(12) %4) #14
  call void @llvm.lifetime.end.p0(i64 16, ptr nonnull %4) #14
  resume { ptr, i32 } %44
}